target datalayout = "e-m:e-p270:32:32-p271:32:32-p272:64:64-i64:64-i128:128-f80:128-n8:16:32:64-S128"
target triple = "x86_64-pc-linux-gnu"

%struct._lv_obj_t = type { ptr, ptr, ptr, ptr, ptr, %struct.lv_area_t, i32, i16, i16 }
%struct.lv_area_t = type { i32, i32, i32, i32 }
%struct.lv_event_list_t = type { %struct._lv_array_t, i8 }
%struct._lv_array_t = type { ptr, i32, i32, i32, i8 }
%struct._lv_obj_spec_attr_t = type { ptr, ptr, %struct.lv_event_list_t, %struct.lv_point_t, i32, i32, i16, i16 }
%struct.lv_point_t = type { i32, i32 }

; Function Attrs: nounwind uwtable
define i32 @lv_obj_get_index(ptr noundef %0) #0 {
  %2 = alloca i32, align 4
  %3 = alloca ptr, align 8
  %4 = alloca ptr, align 8
  %5 = alloca i32, align 4
  %6 = alloca i32, align 4
  store ptr %0, ptr %3, align 8, !tbaa !3
  br label %7

7:                                                ; preds = %1
  %8 = load ptr, ptr %3, align 8, !tbaa !3
  %9 = icmp ne ptr %8, null
  br i1 %9, label %14, label %10

10:                                               ; preds = %7
  br label %11

11:                                               ; preds = %10
  br label %12

12:                                               ; preds = %11
  br label %13

13:                                               ; preds = %12, %13
  br label %13

14:                                               ; preds = %7
  br label %15

15:                                               ; preds = %14
  call void @llvm.lifetime.start.p0(i64 8, ptr %4) #3
  %16 = load ptr, ptr %3, align 8, !tbaa !3
  %17 = call ptr @lv_obj_get_parent(ptr noundef %16)
  store ptr %17, ptr %4, align 8, !tbaa !3
  %18 = load ptr, ptr %4, align 8, !tbaa !3
  %19 = icmp eq ptr %18, null
  br i1 %19, label %20, label %21

20:                                               ; preds = %15
  store i32 -1, ptr %2, align 4
  store i32 1, ptr %5, align 4
  br label %59

21:                                               ; preds = %15
  call void @llvm.lifetime.start.p0(i64 4, ptr %6) #3
  store i32 0, ptr %6, align 4, !tbaa !37
  store i32 0, ptr %6, align 4, !tbaa !37
  br label %22

22:                                               ; preds = %46, %21
  %23 = load i32, ptr %6, align 4, !tbaa !37
  %24 = load ptr, ptr %4, align 8, !tbaa !3
  %25 = getelementptr inbounds nuw %struct._lv_obj_t, ptr %24, i32 0, i32 2
  %26 = load ptr, ptr %25, align 8, !tbaa !43
  %27 = getelementptr inbounds nuw %struct._lv_obj_spec_attr_t, ptr %26, i32 0, i32 6
  %28 = load i16, ptr %27, align 8, !tbaa !64
  %29 = zext i16 %28 to i32
  %30 = icmp slt i32 %23, %29
  br i1 %30, label %31, label %49

31:                                               ; preds = %22
  %32 = load ptr, ptr %4, align 8, !tbaa !3
  %33 = getelementptr inbounds nuw %struct._lv_obj_t, ptr %32, i32 0, i32 2
  %34 = load ptr, ptr %33, align 8, !tbaa !43
  %35 = getelementptr inbounds nuw %struct._lv_obj_spec_attr_t, ptr %34, i32 0, i32 0
  %36 = load ptr, ptr %35, align 8, !tbaa !66
  %37 = load i32, ptr %6, align 4, !tbaa !37
  %38 = sext i32 %37 to i64
  %39 = getelementptr inbounds ptr, ptr %36, i64 %38
  %40 = load ptr, ptr %39, align 8, !tbaa !3
  %41 = load ptr, ptr %3, align 8, !tbaa !3
  %42 = icmp eq ptr %40, %41
  br i1 %42, label %43, label %45

43:                                               ; preds = %31
  %44 = load i32, ptr %6, align 4, !tbaa !37
  store i32 %44, ptr %2, align 4
  store i32 1, ptr %5, align 4
  br label %58

45:                                               ; preds = %31
  br label %46

46:                                               ; preds = %45
  %47 = load i32, ptr %6, align 4, !tbaa !37
  %48 = add nsw i32 %47, 1
  store i32 %48, ptr %6, align 4, !tbaa !37
  br label %22, !llvm.loop !76

49:                                               ; preds = %22
  br label %50

50:                                               ; preds = %49
  br label %51

51:                                               ; preds = %50
  br label %52

52:                                               ; preds = %51
  br label %53

53:                                               ; preds = %52
  br label %54

54:                                               ; preds = %55, %53
  br label %55

55:                                               ; preds = %54
  br label %54

56:                                               ; No predecessors!
  br label %57

57:                                               ; preds = %56
  store i32 -1, ptr %2, align 4
  store i32 1, ptr %5, align 4
  br label %58

58:                                               ; preds = %57, %43
  call void @llvm.lifetime.end.p0(i64 4, ptr %6) #3
  br label %59

59:                                               ; preds = %58, %20
  call void @llvm.lifetime.end.p0(i64 8, ptr %4) #3
  %60 = load i32, ptr %2, align 4
  ret i32 %60
}

; Function Attrs: nounwind uwtable
define i32 @lv_obj_get_child_count(ptr noundef %0) #0 {
  %2 = alloca i32, align 4
  %3 = alloca ptr, align 8
  store ptr %0, ptr %3, align 8, !tbaa !3
  br label %4

4:                                                ; preds = %1
  %5 = load ptr, ptr %3, align 8, !tbaa !3
  %6 = icmp ne ptr %5, null
  br i1 %6, label %11, label %7

7:                                                ; preds = %4
  br label %8

8:                                                ; preds = %7
  br label %9

9:                                                ; preds = %8
  br label %10

10:                                               ; preds = %9, %10
  br label %10

11:                                               ; preds = %4
  br label %12

12:                                               ; preds = %11
  %13 = load ptr, ptr %3, align 8, !tbaa !3
  %14 = getelementptr inbounds nuw %struct._lv_obj_t, ptr %13, i32 0, i32 2
  %15 = load ptr, ptr %14, align 8, !tbaa !43
  %16 = icmp eq ptr %15, null
  br i1 %16, label %17, label %18

17:                                               ; preds = %12
  store i32 0, ptr %2, align 4
  br label %25

18:                                               ; preds = %12
  %19 = load ptr, ptr %3, align 8, !tbaa !3
  %20 = getelementptr inbounds nuw %struct._lv_obj_t, ptr %19, i32 0, i32 2
  %21 = load ptr, ptr %20, align 8, !tbaa !43
  %22 = getelementptr inbounds nuw %struct._lv_obj_spec_attr_t, ptr %21, i32 0, i32 6
  %23 = load i16, ptr %22, align 8, !tbaa !64
  %24 = zext i16 %23 to i32
  store i32 %24, ptr %2, align 4
  br label %25

25:                                               ; preds = %18, %17
  %26 = load i32, ptr %2, align 4
  ret i32 %26
}

; Function Attrs: nounwind uwtable
define ptr @lv_obj_get_parent(ptr noundef %0) #0 {
  %2 = alloca ptr, align 8
  %3 = alloca ptr, align 8
  store ptr %0, ptr %3, align 8, !tbaa !3
  %4 = load ptr, ptr %3, align 8, !tbaa !3
  %5 = icmp eq ptr %4, null
  br i1 %5, label %6, label %7

6:                                                ; preds = %1
  store ptr null, ptr %2, align 8
  br label %20

7:                                                ; preds = %1
  br label %8

8:                                                ; preds = %7
  %9 = load ptr, ptr %3, align 8, !tbaa !3
  %10 = icmp ne ptr %9, null
  br i1 %10, label %15, label %11

11:                                               ; preds = %8
  br label %12

12:                                               ; preds = %11
  br label %13

13:                                               ; preds = %12
  br label %14

14:                                               ; preds = %13, %14
  br label %14

15:                                               ; preds = %8
  br label %16

16:                                               ; preds = %15
  %17 = load ptr, ptr %3, align 8, !tbaa !3
  %18 = getelementptr inbounds nuw %struct._lv_obj_t, ptr %17, i32 0, i32 1
  %19 = load ptr, ptr %18, align 8, !tbaa !30
  store ptr %19, ptr %2, align 8
  br label %20

20:                                               ; preds = %16, %6
  %21 = load ptr, ptr %2, align 8
  ret ptr %21
}

; Function Attrs: nounwind uwtable
define void @lv_obj_move_to_index(ptr noundef %0, i32 noundef %1) #0 {
  %3 = alloca ptr, align 8
  %4 = alloca i32, align 4
  %5 = alloca ptr, align 8
  %6 = alloca i32, align 4
  %7 = alloca i32, align 4
  %8 = alloca i32, align 4
  %9 = alloca i32, align 4
  store ptr %0, ptr %3, align 8, !tbaa !3
  store i32 %1, ptr %4, align 4, !tbaa !37
  br label %10

10:                                               ; preds = %2
  %11 = load ptr, ptr %3, align 8, !tbaa !3
  %12 = icmp ne ptr %11, null
  br i1 %12, label %17, label %13

13:                                               ; preds = %10
  br label %14

14:                                               ; preds = %13
  br label %15

15:                                               ; preds = %14
  br label %16

16:                                               ; preds = %15, %16
  br label %16

17:                                               ; preds = %10
  br label %18

18:                                               ; preds = %17
  call void @llvm.lifetime.start.p0(i64 8, ptr %5) #3
  %19 = load ptr, ptr %3, align 8, !tbaa !3
  %20 = call ptr @lv_obj_get_parent(ptr noundef %19)
  store ptr %20, ptr %5, align 8, !tbaa !3
  %21 = load ptr, ptr %5, align 8, !tbaa !3
  %22 = icmp ne ptr %21, null
  br i1 %22, label %27, label %23

23:                                               ; preds = %18
  br label %24

24:                                               ; preds = %23
  br label %25

25:                                               ; preds = %24
  br label %26

26:                                               ; preds = %25
  store i32 1, ptr %6, align 4
  br label %135

27:                                               ; preds = %18
  call void @llvm.lifetime.start.p0(i64 4, ptr %7) #3
  %28 = load ptr, ptr %5, align 8, !tbaa !3
  %29 = call i32 @lv_obj_get_child_count(ptr noundef %28)
  store i32 %29, ptr %7, align 4, !tbaa !37
  call void @llvm.lifetime.start.p0(i64 4, ptr %8) #3
  %30 = load ptr, ptr %3, align 8, !tbaa !3
  %31 = call i32 @lv_obj_get_index(ptr noundef %30)
  store i32 %31, ptr %8, align 4, !tbaa !37
  br label %32

32:                                               ; preds = %27
  %33 = load i32, ptr %8, align 4, !tbaa !37
  %34 = icmp sle i32 0, %33
  br i1 %34, label %41, label %35

35:                                               ; preds = %32
  br label %36

36:                                               ; preds = %35
  br label %37

37:                                               ; preds = %36
  br label %38

38:                                               ; preds = %37
  br label %39

39:                                               ; preds = %40, %38
  br label %40

40:                                               ; preds = %39
  br label %39

41:                                               ; preds = %32
  br label %42

42:                                               ; preds = %41
  br label %43

43:                                               ; preds = %42
  %44 = load i32, ptr %4, align 4, !tbaa !37
  %45 = icmp slt i32 %44, 0
  br i1 %45, label %46, label %50

46:                                               ; preds = %43
  %47 = load i32, ptr %7, align 4, !tbaa !37
  %48 = load i32, ptr %4, align 4, !tbaa !37
  %49 = add i32 %48, %47
  store i32 %49, ptr %4, align 4, !tbaa !37
  br label %50

50:                                               ; preds = %46, %43
  %51 = load i32, ptr %4, align 4, !tbaa !37
  %52 = icmp slt i32 %51, 0
  br i1 %52, label %61, label %53

53:                                               ; preds = %50
  %54 = load i32, ptr %4, align 4, !tbaa !37
  %55 = load i32, ptr %7, align 4, !tbaa !37
  %56 = icmp sge i32 %54, %55
  br i1 %56, label %61, label %57

57:                                               ; preds = %53
  %58 = load i32, ptr %4, align 4, !tbaa !37
  %59 = load i32, ptr %8, align 4, !tbaa !37
  %60 = icmp eq i32 %58, %59
  br i1 %60, label %61, label %62

61:                                               ; preds = %57, %53, %50
  store i32 1, ptr %6, align 4
  br label %134

62:                                               ; preds = %57
  call void @llvm.lifetime.start.p0(i64 4, ptr %9) #3
  %63 = load i32, ptr %8, align 4, !tbaa !37
  store i32 %63, ptr %9, align 4, !tbaa !37
  %64 = load i32, ptr %4, align 4, !tbaa !37
  %65 = load i32, ptr %8, align 4, !tbaa !37
  %66 = icmp slt i32 %64, %65
  br i1 %66, label %67, label %94

67:                                               ; preds = %62
  br label %68

68:                                               ; preds = %72, %67
  %69 = load i32, ptr %9, align 4, !tbaa !37
  %70 = load i32, ptr %4, align 4, !tbaa !37
  %71 = icmp sgt i32 %69, %70
  br i1 %71, label %72, label %93

72:                                               ; preds = %68
  %73 = load ptr, ptr %5, align 8, !tbaa !3
  %74 = getelementptr inbounds nuw %struct._lv_obj_t, ptr %73, i32 0, i32 2
  %75 = load ptr, ptr %74, align 8, !tbaa !43
  %76 = getelementptr inbounds nuw %struct._lv_obj_spec_attr_t, ptr %75, i32 0, i32 0
  %77 = load ptr, ptr %76, align 8, !tbaa !66
  %78 = load i32, ptr %9, align 4, !tbaa !37
  %79 = sub nsw i32 %78, 1
  %80 = sext i32 %79 to i64
  %81 = getelementptr inbounds ptr, ptr %77, i64 %80
  %82 = load ptr, ptr %81, align 8, !tbaa !3
  %83 = load ptr, ptr %5, align 8, !tbaa !3
  %84 = getelementptr inbounds nuw %struct._lv_obj_t, ptr %83, i32 0, i32 2
  %85 = load ptr, ptr %84, align 8, !tbaa !43
  %86 = getelementptr inbounds nuw %struct._lv_obj_spec_attr_t, ptr %85, i32 0, i32 0
  %87 = load ptr, ptr %86, align 8, !tbaa !66
  %88 = load i32, ptr %9, align 4, !tbaa !37
  %89 = sext i32 %88 to i64
  %90 = getelementptr inbounds ptr, ptr %87, i64 %89
  store ptr %82, ptr %90, align 8, !tbaa !3
  %91 = load i32, ptr %9, align 4, !tbaa !37
  %92 = add nsw i32 %91, -1
  store i32 %92, ptr %9, align 4, !tbaa !37
  br label %68, !llvm.loop !77

93:                                               ; preds = %68
  br label %121

94:                                               ; preds = %62
  br label %95

95:                                               ; preds = %99, %94
  %96 = load i32, ptr %9, align 4, !tbaa !37
  %97 = load i32, ptr %4, align 4, !tbaa !37
  %98 = icmp slt i32 %96, %97
  br i1 %98, label %99, label %120

99:                                               ; preds = %95
  %100 = load ptr, ptr %5, align 8, !tbaa !3
  %101 = getelementptr inbounds nuw %struct._lv_obj_t, ptr %100, i32 0, i32 2
  %102 = load ptr, ptr %101, align 8, !tbaa !43
  %103 = getelementptr inbounds nuw %struct._lv_obj_spec_attr_t, ptr %102, i32 0, i32 0
  %104 = load ptr, ptr %103, align 8, !tbaa !66
  %105 = load i32, ptr %9, align 4, !tbaa !37
  %106 = add nsw i32 %105, 1
  %107 = sext i32 %106 to i64
  %108 = getelementptr inbounds ptr, ptr %104, i64 %107
  %109 = load ptr, ptr %108, align 8, !tbaa !3
  %110 = load ptr, ptr %5, align 8, !tbaa !3
  %111 = getelementptr inbounds nuw %struct._lv_obj_t, ptr %110, i32 0, i32 2
  %112 = load ptr, ptr %111, align 8, !tbaa !43
  %113 = getelementptr inbounds nuw %struct._lv_obj_spec_attr_t, ptr %112, i32 0, i32 0
  %114 = load ptr, ptr %113, align 8, !tbaa !66
  %115 = load i32, ptr %9, align 4, !tbaa !37
  %116 = sext i32 %115 to i64
  %117 = getelementptr inbounds ptr, ptr %114, i64 %116
  store ptr %109, ptr %117, align 8, !tbaa !3
  %118 = load i32, ptr %9, align 4, !tbaa !37
  %119 = add nsw i32 %118, 1
  store i32 %119, ptr %9, align 4, !tbaa !37
  br label %95, !llvm.loop !78

120:                                              ; preds = %95
  br label %121

121:                                              ; preds = %120, %93
  %122 = load ptr, ptr %3, align 8, !tbaa !3
  %123 = load ptr, ptr %5, align 8, !tbaa !3
  %124 = getelementptr inbounds nuw %struct._lv_obj_t, ptr %123, i32 0, i32 2
  %125 = load ptr, ptr %124, align 8, !tbaa !43
  %126 = getelementptr inbounds nuw %struct._lv_obj_spec_attr_t, ptr %125, i32 0, i32 0
  %127 = load ptr, ptr %126, align 8, !tbaa !66
  %128 = load i32, ptr %4, align 4, !tbaa !37
  %129 = sext i32 %128 to i64
  %130 = getelementptr inbounds ptr, ptr %127, i64 %129
  store ptr %122, ptr %130, align 8, !tbaa !3
  %131 = load ptr, ptr %5, align 8, !tbaa !3
  %132 = call i32 @lv_obj_send_event(ptr noundef %131, i32 noundef 42, ptr noundef null)
  %133 = load ptr, ptr %5, align 8, !tbaa !3
  call void @lv_obj_invalidate(ptr noundef %133)
  call void @llvm.lifetime.end.p0(i64 4, ptr %9) #3
  store i32 0, ptr %6, align 4
  br label %134

134:                                              ; preds = %121, %61
  call void @llvm.lifetime.end.p0(i64 4, ptr %8) #3
  call void @llvm.lifetime.end.p0(i64 4, ptr %7) #3
  br label %135

135:                                              ; preds = %134, %26
  call void @llvm.lifetime.end.p0(i64 8, ptr %5) #3
  %136 = load i32, ptr %6, align 4
  switch i32 %136, label %138 [
    i32 0, label %137
    i32 1, label %137
  ]

137:                                              ; preds = %135, %135
  ret void

138:                                              ; preds = %135
  unreachable
}