; Function Attrs: nounwind uwtable
define void @lv_obj_move_to_index(ptr noundef %0, i32 noundef %1) local_unnamed_addr #0 {
  %.not = icmp eq ptr %0, null
  br i1 %.not, label %.preheader, label %lv_obj_get_parent.exit

.preheader:                                       ; preds = %2, %.preheader
  br label %.preheader

lv_obj_get_parent.exit:                           ; preds = %2
  %3 = getelementptr inbounds nuw i8, ptr %0, i64 8
  %4 = load ptr, ptr %3, align 8, !tbaa !3
  %.not41 = icmp eq ptr %4, null
  br i1 %.not41, label %46, label %5

5:                                                ; preds = %lv_obj_get_parent.exit
  %6 = getelementptr inbounds nuw i8, ptr %4, i64 16
  %7 = load ptr, ptr %6, align 8, !tbaa !37
  %8 = icmp eq ptr %7, null
  br i1 %8, label %.preheader14.i, label %9

9:                                                ; preds = %5
  %10 = getelementptr inbounds nuw i8, ptr %7, i64 64
  %11 = load i16, ptr %10, align 8, !tbaa !38
  %12 = zext i16 %11 to i32
  br label %.preheader14.i

.preheader14.i:                                   ; preds = %5, %9
  %.0.i44 = phi i32 [ %12, %9 ], [ 0, %5 ]
  %13 = getelementptr inbounds nuw i8, ptr %7, i64 64
  %14 = load i16, ptr %13, align 8, !tbaa !38
  %.not17.i = icmp eq i16 %14, 0
  br i1 %.not17.i, label %.preheader13.i.preheader, label %.lr.ph.i

.lr.ph.i:                                         ; preds = %.preheader14.i
  %15 = load ptr, ptr %7, align 8, !tbaa !42
  %wide.trip.count.i = zext i16 %14 to i64
  br label %16

16:                                               ; preds = %20, %.lr.ph.i
  %indvars.iv.i = phi i64 [ 0, %.lr.ph.i ], [ %indvars.iv.next.i, %20 ]
  %17 = getelementptr inbounds nuw ptr, ptr %15, i64 %indvars.iv.i
  %18 = load ptr, ptr %17, align 8, !tbaa !33
  %19 = icmp eq ptr %18, %0
  br i1 %19, label %21, label %20

20:                                               ; preds = %16
  %indvars.iv.next.i = add nuw nsw i64 %indvars.iv.i, 1
  %exitcond.not.i = icmp eq i64 %indvars.iv.next.i, %wide.trip.count.i
  br i1 %exitcond.not.i, label %.preheader13.i.preheader, label %16, !llvm.loop !58

.preheader13.i.preheader:                         ; preds = %20, %.preheader14.i
  br label %.preheader13.i

.preheader13.i:                                   ; preds = %.preheader13.i.preheader, %.preheader13.i
  br label %.preheader13.i

21:                                               ; preds = %16
  %22 = trunc nuw nsw i64 %indvars.iv.i to i32
  %23 = icmp slt i32 %1, 0
  %24 = select i1 %23, i32 %.0.i44, i32 0
  %spec.select = add nsw i32 %24, %1
  %25 = icmp slt i32 %spec.select, 0
  %.not42 = icmp sge i32 %spec.select, %.0.i44
  %or.cond.not48 = select i1 %25, i1 true, i1 %.not42
  %26 = icmp eq i32 %spec.select, %22
  %or.cond43 = or i1 %or.cond.not48, %26
  br i1 %or.cond43, label %46, label %27

27:                                               ; preds = %21
  %28 = icmp samesign ult i32 %spec.select, %22
  br i1 %28, label %.preheader49, label %.preheader50

.preheader50:                                     ; preds = %27
  %29 = icmp samesign ugt i32 %spec.select, %22
  %.pre = load ptr, ptr %7, align 8, !tbaa !42
  br i1 %29, label %.lr.ph, label %.loopexit

.lr.ph:                                           ; preds = %.preheader50
  %30 = and i64 %indvars.iv.i, 4294967295
  %wide.trip.count = zext nneg i32 %spec.select to i64
  br label %38

.preheader49:                                     ; preds = %27
  %31 = load ptr, ptr %7, align 8, !tbaa !42
  %invariant.gep = getelementptr i8, ptr %31, i64 -8
  %sext = shl i64 %indvars.iv.i, 32
  %32 = ashr exact i64 %sext, 32
  %33 = zext nneg i32 %spec.select to i64
  br label %34

34:                                               ; preds = %.preheader49, %34
  %indvars.iv60 = phi i64 [ %32, %.preheader49 ], [ %indvars.iv.next61, %34 ]
  %gep = getelementptr ptr, ptr %invariant.gep, i64 %indvars.iv60
  %35 = load ptr, ptr %gep, align 8, !tbaa !33
  %36 = getelementptr inbounds nuw ptr, ptr %31, i64 %indvars.iv60
  store ptr %35, ptr %36, align 8, !tbaa !33
  %indvars.iv.next61 = add nsw i64 %indvars.iv60, -1
  %37 = icmp sgt i64 %indvars.iv.next61, %33
  br i1 %37, label %34, label %.loopexit, !llvm.loop !66

38:                                               ; preds = %.lr.ph, %38
  %indvars.iv = phi i64 [ %30, %.lr.ph ], [ %indvars.iv.next, %38 ]
  %indvars.iv.next = add nuw nsw i64 %indvars.iv, 1
  %39 = getelementptr inbounds nuw ptr, ptr %.pre, i64 %indvars.iv.next
  %40 = load ptr, ptr %39, align 8, !tbaa !33
  %41 = getelementptr inbounds nuw ptr, ptr %.pre, i64 %indvars.iv
  store ptr %40, ptr %41, align 8, !tbaa !33
  %exitcond.not = icmp eq i64 %indvars.iv.next, %wide.trip.count
  br i1 %exitcond.not, label %.loopexit, label %38, !llvm.loop !67

.loopexit:                                        ; preds = %38, %34, %.preheader50
  %42 = phi ptr [ %.pre, %.preheader50 ], [ %31, %34 ], [ %.pre, %38 ]
  %43 = zext nneg i32 %spec.select to i64
  %44 = getelementptr inbounds nuw ptr, ptr %42, i64 %43
  store ptr %0, ptr %44, align 8, !tbaa !33
  %45 = tail call i32 @lv_obj_send_event(ptr noundef nonnull %4, i32 noundef 42, ptr noundef null) #6
  tail call void @lv_obj_invalidate(ptr noundef nonnull %4) #6
  br label %46

46:                                               ; preds = %.loopexit, %21, %lv_obj_get_parent.exit
  ret void
}